target datalayout = "e-m:e-p270:32:32-p271:32:32-p272:64:64-i64:64-i128:128-f80:128-n8:16:32:64-S128"
target triple = "x86_64-pc-linux-gnu"

%struct.sat_solver3_t = type { i32, i32, i32, i32, %struct.Sat_Mem_t_, i32, i32, ptr, ptr, i32, i32, i32, i32, i32, i64, i64, i64, ptr, ptr, i32, i32, %struct.veci_t, ptr, i32, ptr, ptr, ptr, ptr, ptr, ptr, ptr, ptr, %struct.veci_t, %struct.veci_t, %struct.veci_t, %struct.veci_t, ptr, %struct.veci_t, i32, i32, i32, double, double, i32, i32, %struct.stats_t, i32, i32, i32, i32, i32, i64, i64, i64, %struct.veci_t, ptr, i32, i32, i32, %struct.veci_t, %struct.veci_t, i32, i32, i32, ptr, ptr, i32, ptr, i32, i32, %struct.veci_t, ptr, ptr }
%struct.Sat_Mem_t_ = type { [2 x i32], [2 x i32], [2 x i32], [2 x i32], i32, i32, i32, i32, ptr }
%struct.stats_t = type { i32, i32, i32, i64, i64, i64, i64, i64, i64, i64 }
%struct.veci_t = type { i32, i32, ptr }

; Function Attrs: nounwind uwtable
define void @sat_solver3_set_resource_limits(ptr noundef %0, i64 noundef %1, i64 noundef %2, i64 noundef %3, i64 noundef %4) #0 {
  %6 = alloca ptr, align 8
  %7 = alloca i64, align 8
  %8 = alloca i64, align 8
  %9 = alloca i64, align 8
  %10 = alloca i64, align 8
  store ptr %0, ptr %6, align 8, !tbaa !3
  store i64 %1, ptr %7, align 8, !tbaa !29
  store i64 %2, ptr %8, align 8, !tbaa !29
  store i64 %3, ptr %9, align 8, !tbaa !29
  store i64 %4, ptr %10, align 8, !tbaa !29
  %11 = load ptr, ptr %6, align 8, !tbaa !3
  %12 = getelementptr inbounds nuw %struct.sat_solver3_t, ptr %11, i32 0, i32 56
  store i32 0, ptr %12, align 8, !tbaa !148
  %13 = load ptr, ptr %6, align 8, !tbaa !3
  %14 = getelementptr inbounds nuw %struct.sat_solver3_t, ptr %13, i32 0, i32 51
  store i64 0, ptr %14, align 8, !tbaa !142
  %15 = load ptr, ptr %6, align 8, !tbaa !3
  %16 = getelementptr inbounds nuw %struct.sat_solver3_t, ptr %15, i32 0, i32 52
  store i64 0, ptr %16, align 8, !tbaa !143
  %17 = load i64, ptr %7, align 8, !tbaa !29
  %18 = icmp ne i64 %17, 0
  br i1 %18, label %19, label %28

19:                                               ; preds = %5
  %20 = load ptr, ptr %6, align 8, !tbaa !3
  %21 = getelementptr inbounds nuw %struct.sat_solver3_t, ptr %20, i32 0, i32 45
  %22 = getelementptr inbounds nuw %struct.stats_t, ptr %21, i32 0, i32 6
  %23 = load i64, ptr %22, align 8, !tbaa !83
  %24 = load i64, ptr %7, align 8, !tbaa !29
  %25 = add nsw i64 %23, %24
  %26 = load ptr, ptr %6, align 8, !tbaa !3
  %27 = getelementptr inbounds nuw %struct.sat_solver3_t, ptr %26, i32 0, i32 51
  store i64 %25, ptr %27, align 8, !tbaa !142
  br label %28

28:                                               ; preds = %19, %5
  %29 = load i64, ptr %8, align 8, !tbaa !29
  %30 = icmp ne i64 %29, 0
  br i1 %30, label %31, label %40

31:                                               ; preds = %28
  %32 = load ptr, ptr %6, align 8, !tbaa !3
  %33 = getelementptr inbounds nuw %struct.sat_solver3_t, ptr %32, i32 0, i32 45
  %34 = getelementptr inbounds nuw %struct.stats_t, ptr %33, i32 0, i32 4
  %35 = load i64, ptr %34, align 8, !tbaa !61
  %36 = load i64, ptr %8, align 8, !tbaa !29
  %37 = add nsw i64 %35, %36
  %38 = load ptr, ptr %6, align 8, !tbaa !3
  %39 = getelementptr inbounds nuw %struct.sat_solver3_t, ptr %38, i32 0, i32 52
  store i64 %37, ptr %39, align 8, !tbaa !143
  br label %40

40:                                               ; preds = %31, %28
  %41 = load i64, ptr %9, align 8, !tbaa !29
  %42 = icmp ne i64 %41, 0
  br i1 %42, label %43, label %58

43:                                               ; preds = %40
  %44 = load ptr, ptr %6, align 8, !tbaa !3
  %45 = getelementptr inbounds nuw %struct.sat_solver3_t, ptr %44, i32 0, i32 51
  %46 = load i64, ptr %45, align 8, !tbaa !142
  %47 = icmp eq i64 %46, 0
  br i1 %47, label %54, label %48

48:                                               ; preds = %43
  %49 = load ptr, ptr %6, align 8, !tbaa !3
  %50 = getelementptr inbounds nuw %struct.sat_solver3_t, ptr %49, i32 0, i32 51
  %51 = load i64, ptr %50, align 8, !tbaa !142
  %52 = load i64, ptr %9, align 8, !tbaa !29
  %53 = icmp sgt i64 %51, %52
  br i1 %53, label %54, label %58

54:                                               ; preds = %48, %43
  %55 = load i64, ptr %9, align 8, !tbaa !29
  %56 = load ptr, ptr %6, align 8, !tbaa !3
  %57 = getelementptr inbounds nuw %struct.sat_solver3_t, ptr %56, i32 0, i32 51
  store i64 %55, ptr %57, align 8, !tbaa !142
  br label %58

58:                                               ; preds = %54, %48, %40
  %59 = load i64, ptr %10, align 8, !tbaa !29
  %60 = icmp ne i64 %59, 0
  br i1 %60, label %61, label %76

61:                                               ; preds = %58
  %62 = load ptr, ptr %6, align 8, !tbaa !3
  %63 = getelementptr inbounds nuw %struct.sat_solver3_t, ptr %62, i32 0, i32 52
  %64 = load i64, ptr %63, align 8, !tbaa !143
  %65 = icmp eq i64 %64, 0
  br i1 %65, label %72, label %66

66:                                               ; preds = %61
  %67 = load ptr, ptr %6, align 8, !tbaa !3
  %68 = getelementptr inbounds nuw %struct.sat_solver3_t, ptr %67, i32 0, i32 52
  %69 = load i64, ptr %68, align 8, !tbaa !143
  %70 = load i64, ptr %10, align 8, !tbaa !29
  %71 = icmp sgt i64 %69, %70
  br i1 %71, label %72, label %76

72:                                               ; preds = %66, %61
  %73 = load i64, ptr %10, align 8, !tbaa !29
  %74 = load ptr, ptr %6, align 8, !tbaa !3
  %75 = getelementptr inbounds nuw %struct.sat_solver3_t, ptr %74, i32 0, i32 52
  store i64 %73, ptr %75, align 8, !tbaa !143
  br label %76

76:                                               ; preds = %72, %66, %58
  ret void
}