; Function Attrs: mustprogress nofree norecurse nosync nounwind willreturn memory(argmem: readwrite) uwtable
define void @sat_solver3_set_resource_limits(ptr noundef captures(none) initializes((488, 504), (536, 540)) %0, i64 noundef %1, i64 noundef %2, i64 noundef %3, i64 noundef %4) local_unnamed_addr #16 {
  %6 = getelementptr inbounds nuw i8, ptr %0, i64 536
  store i32 0, ptr %6, align 8, !tbaa !140
  %7 = getelementptr inbounds nuw i8, ptr %0, i64 488
  %8 = getelementptr inbounds nuw i8, ptr %0, i64 496
  %.not = icmp eq i64 %1, 0
  tail call void @llvm.memset.p0.i64(ptr noundef nonnull align 8 dereferenceable(16) %7, i8 0, i64 16, i1 false)
  br i1 %.not, label %13, label %9

9:                                                ; preds = %5
  %10 = getelementptr inbounds nuw i8, ptr %0, i64 432
  %11 = load i64, ptr %10, align 8, !tbaa !136
  %12 = add nsw i64 %11, %1
  store i64 %12, ptr %7, align 8, !tbaa !167
  br label %13

13:                                               ; preds = %9, %5
  %14 = phi i64 [ %12, %9 ], [ 0, %5 ]
  %.not27 = icmp eq i64 %2, 0
  br i1 %.not27, label %19, label %15

15:                                               ; preds = %13
  %16 = getelementptr inbounds nuw i8, ptr %0, i64 416
  %17 = load i64, ptr %16, align 8, !tbaa !54
  %18 = add nsw i64 %17, %2
  store i64 %18, ptr %8, align 8, !tbaa !168
  br label %19

19:                                               ; preds = %15, %13
  %20 = phi i64 [ %18, %15 ], [ 0, %13 ]
  %.not28 = icmp eq i64 %3, 0
  br i1 %.not28, label %25, label %21

21:                                               ; preds = %19
  %22 = icmp eq i64 %14, 0
  %23 = icmp sgt i64 %14, %3
  %or.cond = or i1 %22, %23
  br i1 %or.cond, label %24, label %25

24:                                               ; preds = %21
  store i64 %3, ptr %7, align 8, !tbaa !167
  br label %25

25:                                               ; preds = %21, %24, %19
  %.not29 = icmp eq i64 %4, 0
  br i1 %.not29, label %30, label %26

26:                                               ; preds = %25
  %27 = icmp eq i64 %20, 0
  %28 = icmp sgt i64 %20, %4
  %or.cond30 = or i1 %27, %28
  br i1 %or.cond30, label %29, label %30

29:                                               ; preds = %26
  store i64 %4, ptr %8, align 8, !tbaa !168
  br label %30

30:                                               ; preds = %26, %29, %25
  ret void
}